; Function Attrs: mustprogress uwtable
define { <2 x float>, <2 x float> } @_ZN3vcg10trackutils12GetViewPlaneERKNS_4ViewIfEERKNS_6Point3IfEE(ptr noundef nonnull align 4 dereferenceable(273) %0, ptr nocapture noundef nonnull readonly align 4 dereferenceable(12) %1) local_unnamed_addr #3 {
_ZN3vcg6Point3IfE9NormalizeEv.exit:
  %2 = alloca %"class.vcg::Plane3", align 8
  %3 = tail call { <2 x float>, float } @_ZNK3vcg4ViewIfE9ViewPointEv(ptr noundef nonnull align 4 dereferenceable(273) %0)
  %.fca.0.extract1 = extractvalue { <2 x float>, float } %3, 0
  %.fca.1.extract2 = extractvalue { <2 x float>, float } %3, 1
  %4 = load <2 x float>, ptr %1, align 4
  %5 = fsub <2 x float> %.fca.0.extract1, %4
  %6 = getelementptr inbounds i8, ptr %1, i64 8
  %7 = load float, ptr %6, align 4
  %8 = fsub float %.fca.1.extract2, %7
  %9 = fmul <2 x float> %5, %5
  %10 = extractelement <2 x float> %9, i64 1
  %11 = extractelement <2 x float> %5, i64 0
  %12 = tail call float @llvm.fmuladd.f32(float %11, float %11, float %10)
  %13 = tail call float @llvm.fmuladd.f32(float %8, float %8, float %12)
  %sqrt.i = tail call float @llvm.sqrt.f32(float %13)
  %14 = fcmp ogt float %sqrt.i, 0.000000e+00
  %15 = insertelement <2 x float> poison, float %sqrt.i, i64 0
  %16 = shufflevector <2 x float> %15, <2 x float> poison, <2 x i32> zeroinitializer
  %17 = fdiv <2 x float> %5, %16
  %18 = fdiv float %8, %sqrt.i
  %.sroa.0.0 = select i1 %14, <2 x float> %17, <2 x float> %5
  %.sroa.9.0 = select i1 %14, float %18, float %8
  %19 = extractelement <2 x float> %.sroa.0.0, i64 1
  %20 = fmul <2 x float> %4, %.sroa.0.0
  %21 = extractelement <2 x float> %20, i64 1
  %22 = extractelement <2 x float> %.sroa.0.0, i64 0
  %23 = extractelement <2 x float> %4, i64 0
  %24 = tail call float @llvm.fmuladd.f32(float %22, float %23, float %21)
  %25 = tail call noundef float @llvm.fmuladd.f32(float %.sroa.9.0, float %7, float %24)
  %26 = fmul float %19, %19
  %27 = tail call float @llvm.fmuladd.f32(float %22, float %22, float %26)
  %28 = tail call float @llvm.fmuladd.f32(float %.sroa.9.0, float %.sroa.9.0, float %27)
  %sqrt.i.i.i = tail call noundef float @llvm.sqrt.f32(float %28)
  %29 = insertelement <2 x float> poison, float %sqrt.i.i.i, i64 0
  %30 = shufflevector <2 x float> %29, <2 x float> poison, <2 x i32> zeroinitializer
  %31 = fdiv <2 x float> %.sroa.0.0, %30
  %32 = fdiv float %.sroa.9.0, %sqrt.i.i.i
  %.4..4..4..sroa_idx = getelementptr inbounds i8, ptr %2, i64 4
  store <2 x float> %31, ptr %.4..4..4..sroa_idx, align 4
  %.12..12..12..sroa_idx = getelementptr inbounds i8, ptr %2, i64 12
  store float %32, ptr %.12..12..12..sroa_idx, align 4
  %33 = fdiv float %25, %sqrt.i.i.i
  store float %33, ptr %2, align 8
  %.0..0..0..fca.0.load = load <2 x float>, ptr %2, align 8
  %.fca.0.insert = insertvalue { <2 x float>, <2 x float> } poison, <2 x float> %.0..0..0..fca.0.load, 0
  %.8..8..8..fca.1.gep.sroa_idx = getelementptr inbounds i8, ptr %2, i64 8
  %.8..8..8..fca.1.load = load <2 x float>, ptr %.8..8..8..fca.1.gep.sroa_idx, align 8
  %.fca.1.insert = insertvalue { <2 x float>, <2 x float> } %.fca.0.insert, <2 x float> %.8..8..8..fca.1.load, 1
  ret { <2 x float>, <2 x float> } %.fca.1.insert
}